; Function Attrs: null_pointer_is_valid sspstrong uwtable
define void @fragment_add_seq_offset(ptr noundef readonly captures(none) %0, ptr noundef %1, i32 noundef %2, ptr noundef %3, i32 noundef %4) local_unnamed_addr #2 {
  %6 = alloca ptr, align 8
  call void @llvm.lifetime.start.p0(i64 8, ptr nonnull %6) #18
  %7 = getelementptr inbounds nuw i8, ptr %0, i64 16
  %8 = load ptr, ptr %7, align 8
  %9 = tail call ptr %8(ptr noundef %1, i32 noundef %2, ptr noundef %3)
  %10 = load ptr, ptr %0, align 8
  %11 = call i32 @g_hash_table_lookup_extended(ptr noundef %10, ptr noundef %9, ptr noundef null, ptr noundef nonnull %6)
  %.not.i = icmp eq i32 %11, 0
  br i1 %.not.i, label %12, label %lookup_fd_head.exit

12:                                               ; preds = %5
  store ptr null, ptr %6, align 8
  br label %lookup_fd_head.exit

lookup_fd_head.exit:                              ; preds = %5, %12
  %13 = getelementptr inbounds nuw i8, ptr %0, i64 32
  %14 = load ptr, ptr %13, align 8
  call void %14(ptr noundef %9)
  %15 = load ptr, ptr %6, align 8
  call void @llvm.lifetime.end.p0(i64 8, ptr nonnull %6) #18
  %.not = icmp eq ptr %15, null
  br i1 %.not, label %20, label %16

16:                                               ; preds = %lookup_fd_head.exit
  %17 = getelementptr inbounds nuw i8, ptr %15, i64 32
  %18 = load i32, ptr %17, align 8
  %.not7 = icmp eq i32 %18, 0
  br i1 %.not7, label %19, label %20

19:                                               ; preds = %16
  store i32 %4, ptr %17, align 8
  br label %20

20:                                               ; preds = %16, %lookup_fd_head.exit, %19
  ret void
}